target datalayout = "e-m:e-p270:32:32-p271:32:32-p272:64:64-i64:64-i128:128-f80:128-n8:16:32:64-S128"
target triple = "x86_64-pc-linux-gnu"

%struct.SC_Man_ = type { ptr, ptr, i32, ptr, ptr, ptr, ptr, ptr, ptr, ptr, ptr, ptr, ptr, ptr, ptr, ptr, ptr, ptr, ptr, ptr, float, float, float, i32, ptr, ptr, ptr, ptr, ptr, ptr, ptr, i32, float, float, float, float, float, float, i64, i64, i64, i64, i64, ptr }
%struct.timespec = type { i64, i64 }

@.str = private unnamed_addr constant [9 x i8] c"Total : \00", align 1
@.str.1 = private unnamed_addr constant [7 x i8] c"%5d : \00", align 1
@.str.2 = private unnamed_addr constant [11 x i8] c"Try =%6d  \00", align 1
@.str.3 = private unnamed_addr constant [12 x i8] c"Over =%6d  \00", align 1
@.str.4 = private unnamed_addr constant [12 x i8] c"Fail =%6d  \00", align 1
@.str.5 = private unnamed_addr constant [11 x i8] c"Win =%6d  \00", align 1
@.str.6 = private unnamed_addr constant [4 x i8] c"A: \00", align 1
@.str.7 = private unnamed_addr constant [6 x i8] c"%.2f \00", align 1
@.str.8 = private unnamed_addr constant [14 x i8] c"(%+5.1f %%)  \00", align 1
@.str.9 = private unnamed_addr constant [4 x i8] c"D: \00", align 1
@.str.10 = private unnamed_addr constant [9 x i8] c"%.2f ps \00", align 1
@.str.11 = private unnamed_addr constant [14 x i8] c"%8.2f sec    \00", align 1
@.str.12 = private unnamed_addr constant [3 x i8] c"%c\00", align 1

; Function Attrs: inlinehint nounwind uwtable
define internal i64 @Abc_Clock() #2 {
  %1 = alloca i64, align 8
  %2 = alloca %struct.timespec, align 8
  %3 = alloca i32, align 4
  %4 = alloca i64, align 8
  call void @llvm.lifetime.start.p0(i64 16, ptr %2) #12
  %5 = call i32 @clock_gettime(i32 noundef 1, ptr noundef %2) #12
  %6 = icmp slt i32 %5, 0
  br i1 %6, label %7, label %8

7:                                                ; preds = %0
  store i64 -1, ptr %1, align 8
  store i32 1, ptr %3, align 4
  br label %19

8:                                                ; preds = %0
  call void @llvm.lifetime.start.p0(i64 8, ptr %4) #12
  %9 = getelementptr inbounds nuw %struct.timespec, ptr %2, i32 0, i32 0
  %10 = load i64, ptr %9, align 8, !tbaa !154
  %11 = mul nsw i64 %10, 1000000
  store i64 %11, ptr %4, align 8, !tbaa !55
  %12 = getelementptr inbounds nuw %struct.timespec, ptr %2, i32 0, i32 1
  %13 = load i64, ptr %12, align 8, !tbaa !156
  %14 = mul nsw i64 %13, 1000000
  %15 = sdiv i64 %14, 1000000000
  %16 = load i64, ptr %4, align 8, !tbaa !55
  %17 = add nsw i64 %16, %15
  store i64 %17, ptr %4, align 8, !tbaa !55
  %18 = load i64, ptr %4, align 8, !tbaa !55
  store i64 %18, ptr %1, align 8
  store i32 1, ptr %3, align 4
  call void @llvm.lifetime.end.p0(i64 8, ptr %4) #12
  br label %19

19:                                               ; preds = %8, %7
  call void @llvm.lifetime.end.p0(i64 16, ptr %2) #12
  %20 = load i64, ptr %1, align 8
  ret i64 %20
}

; Function Attrs: nounwind uwtable
define void @Abc_SclDnsizePrint(ptr noundef %0, i32 noundef %1, i32 noundef %2, i32 noundef %3, i32 noundef %4, i32 noundef %5) #0 {
  %7 = alloca ptr, align 8
  %8 = alloca i32, align 4
  %9 = alloca i32, align 4
  %10 = alloca i32, align 4
  %11 = alloca i32, align 4
  %12 = alloca i32, align 4
  store ptr %0, ptr %7, align 8, !tbaa !53
  store i32 %1, ptr %8, align 4, !tbaa !14
  store i32 %2, ptr %9, align 4, !tbaa !14
  store i32 %3, ptr %10, align 4, !tbaa !14
  store i32 %4, ptr %11, align 4, !tbaa !14
  store i32 %5, ptr %12, align 4, !tbaa !14
  %13 = load i32, ptr %8, align 4, !tbaa !14
  %14 = icmp eq i32 %13, -1
  br i1 %14, label %15, label %17

15:                                               ; preds = %6
  %16 = call i32 (ptr, ...) @printf(ptr noundef @.str)
  br label %20

17:                                               ; preds = %6
  %18 = load i32, ptr %8, align 4, !tbaa !14
  %19 = call i32 (ptr, ...) @printf(ptr noundef @.str.1, i32 noundef %18)
  br label %20

20:                                               ; preds = %17, %15
  %21 = load i32, ptr %9, align 4, !tbaa !14
  %22 = call i32 (ptr, ...) @printf(ptr noundef @.str.2, i32 noundef %21)
  %23 = load i32, ptr %10, align 4, !tbaa !14
  %24 = call i32 (ptr, ...) @printf(ptr noundef @.str.3, i32 noundef %23)
  %25 = load i32, ptr %9, align 4, !tbaa !14
  %26 = load i32, ptr %10, align 4, !tbaa !14
  %27 = sub nsw i32 %25, %26
  %28 = load i32, ptr %11, align 4, !tbaa !14
  %29 = sub nsw i32 %27, %28
  %30 = call i32 (ptr, ...) @printf(ptr noundef @.str.4, i32 noundef %29)
  %31 = load i32, ptr %11, align 4, !tbaa !14
  %32 = call i32 (ptr, ...) @printf(ptr noundef @.str.5, i32 noundef %31)
  %33 = call i32 (ptr, ...) @printf(ptr noundef @.str.6)
  %34 = load ptr, ptr %7, align 8, !tbaa !53
  %35 = getelementptr inbounds nuw %struct.SC_Man_, ptr %34, i32 0, i32 32
  %36 = load float, ptr %35, align 4, !tbaa !75
  %37 = fpext float %36 to double
  %38 = call i32 (ptr, ...) @printf(ptr noundef @.str.7, double noundef %37)
  %39 = load ptr, ptr %7, align 8, !tbaa !53
  %40 = getelementptr inbounds nuw %struct.SC_Man_, ptr %39, i32 0, i32 32
  %41 = load float, ptr %40, align 4, !tbaa !75
  %42 = load ptr, ptr %7, align 8, !tbaa !53
  %43 = getelementptr inbounds nuw %struct.SC_Man_, ptr %42, i32 0, i32 34
  %44 = load float, ptr %43, align 4, !tbaa !110
  %45 = fsub float %41, %44
  %46 = fpext float %45 to double
  %47 = fmul double 1.000000e+02, %46
  %48 = load ptr, ptr %7, align 8, !tbaa !53
  %49 = getelementptr inbounds nuw %struct.SC_Man_, ptr %48, i32 0, i32 34
  %50 = load float, ptr %49, align 4, !tbaa !110
  %51 = fpext float %50 to double
  %52 = fdiv double %47, %51
  %53 = call i32 (ptr, ...) @printf(ptr noundef @.str.8, double noundef %52)
  %54 = call i32 (ptr, ...) @printf(ptr noundef @.str.9)
  %55 = load ptr, ptr %7, align 8, !tbaa !53
  %56 = getelementptr inbounds nuw %struct.SC_Man_, ptr %55, i32 0, i32 33
  %57 = load float, ptr %56, align 8, !tbaa !111
  %58 = fpext float %57 to double
  %59 = call i32 (ptr, ...) @printf(ptr noundef @.str.10, double noundef %58)
  %60 = load ptr, ptr %7, align 8, !tbaa !53
  %61 = getelementptr inbounds nuw %struct.SC_Man_, ptr %60, i32 0, i32 33
  %62 = load float, ptr %61, align 8, !tbaa !111
  %63 = load ptr, ptr %7, align 8, !tbaa !53
  %64 = getelementptr inbounds nuw %struct.SC_Man_, ptr %63, i32 0, i32 35
  %65 = load float, ptr %64, align 8, !tbaa !62
  %66 = fsub float %62, %65
  %67 = fpext float %66 to double
  %68 = fmul double 1.000000e+02, %67
  %69 = load ptr, ptr %7, align 8, !tbaa !53
  %70 = getelementptr inbounds nuw %struct.SC_Man_, ptr %69, i32 0, i32 35
  %71 = load float, ptr %70, align 8, !tbaa !62
  %72 = fpext float %71 to double
  %73 = fdiv double %68, %72
  %74 = call i32 (ptr, ...) @printf(ptr noundef @.str.8, double noundef %73)
  %75 = call i64 @Abc_Clock()
  %76 = load ptr, ptr %7, align 8, !tbaa !53
  %77 = getelementptr inbounds nuw %struct.SC_Man_, ptr %76, i32 0, i32 38
  %78 = load i64, ptr %77, align 8, !tbaa !112
  %79 = sub nsw i64 %75, %78
  %80 = sitofp i64 %79 to double
  %81 = fmul double 1.000000e+00, %80
  %82 = fdiv double %81, 1.000000e+06
  %83 = call i32 (ptr, ...) @printf(ptr noundef @.str.11, double noundef %82)
  %84 = load i32, ptr %12, align 4, !tbaa !14
  %85 = icmp ne i32 %84, 0
  %86 = select i1 %85, i32 10, i32 13
  %87 = call i32 (ptr, ...) @printf(ptr noundef @.str.12, i32 noundef %86)
  ret void
}