; Function Attrs: nounwind uwtable
define void @Abc_SclDnsizePrint(ptr noundef readonly captures(none) %0, i32 noundef %1, i32 noundef %2, i32 noundef %3, i32 noundef %4, i32 noundef %5) local_unnamed_addr #0 {
  %7 = alloca %struct.timespec, align 8
  %8 = icmp eq i32 %1, -1
  br i1 %8, label %9, label %11

9:                                                ; preds = %6
  %10 = tail call i32 (ptr, ...) @printf(ptr noundef nonnull dereferenceable(1) @.str)
  br label %13

11:                                               ; preds = %6
  %12 = tail call i32 (ptr, ...) @printf(ptr noundef nonnull dereferenceable(1) @.str.1, i32 noundef %1)
  br label %13

13:                                               ; preds = %11, %9
  %14 = tail call i32 (ptr, ...) @printf(ptr noundef nonnull dereferenceable(1) @.str.2, i32 noundef %2)
  %15 = tail call i32 (ptr, ...) @printf(ptr noundef nonnull dereferenceable(1) @.str.3, i32 noundef %3)
  %16 = add i32 %3, %4
  %17 = sub i32 %2, %16
  %18 = tail call i32 (ptr, ...) @printf(ptr noundef nonnull dereferenceable(1) @.str.4, i32 noundef %17)
  %19 = tail call i32 (ptr, ...) @printf(ptr noundef nonnull dereferenceable(1) @.str.5, i32 noundef %4)
  %20 = tail call i32 (ptr, ...) @printf(ptr noundef nonnull dereferenceable(1) @.str.6)
  %21 = getelementptr inbounds nuw i8, ptr %0, i64 236
  %22 = load float, ptr %21, align 4, !tbaa !93
  %23 = fpext float %22 to double
  %24 = tail call i32 (ptr, ...) @printf(ptr noundef nonnull dereferenceable(1) @.str.7, double noundef %23)
  %25 = load float, ptr %21, align 4, !tbaa !93
  %26 = getelementptr inbounds nuw i8, ptr %0, i64 244
  %27 = load float, ptr %26, align 4, !tbaa !111
  %28 = fsub float %25, %27
  %29 = fpext float %28 to double
  %30 = fmul double %29, 1.000000e+02
  %31 = fpext float %27 to double
  %32 = fdiv double %30, %31
  %33 = tail call i32 (ptr, ...) @printf(ptr noundef nonnull dereferenceable(1) @.str.8, double noundef %32)
  %34 = tail call i32 (ptr, ...) @printf(ptr noundef nonnull dereferenceable(1) @.str.9)
  %35 = getelementptr inbounds nuw i8, ptr %0, i64 240
  %36 = load float, ptr %35, align 8, !tbaa !112
  %37 = fpext float %36 to double
  %38 = tail call i32 (ptr, ...) @printf(ptr noundef nonnull dereferenceable(1) @.str.10, double noundef %37)
  %39 = load float, ptr %35, align 8, !tbaa !112
  %40 = getelementptr inbounds nuw i8, ptr %0, i64 248
  %41 = load float, ptr %40, align 8, !tbaa !85
  %42 = fsub float %39, %41
  %43 = fpext float %42 to double
  %44 = fmul double %43, 1.000000e+02
  %45 = fpext float %41 to double
  %46 = fdiv double %44, %45
  %47 = tail call i32 (ptr, ...) @printf(ptr noundef nonnull dereferenceable(1) @.str.8, double noundef %46)
  call void @llvm.lifetime.start.p0(i64 16, ptr nonnull %7) #22
  %48 = call i32 @clock_gettime(i32 noundef 1, ptr noundef nonnull %7) #22
  %49 = icmp slt i32 %48, 0
  br i1 %49, label %Abc_Clock.exit, label %50

50:                                               ; preds = %13
  %51 = load i64, ptr %7, align 8, !tbaa !49
  %52 = mul nsw i64 %51, 1000000
  %53 = getelementptr inbounds nuw i8, ptr %7, i64 8
  %54 = load i64, ptr %53, align 8, !tbaa !52
  %55 = sdiv i64 %54, 1000
  %56 = add nsw i64 %55, %52
  br label %Abc_Clock.exit

Abc_Clock.exit:                                   ; preds = %13, %50
  %.0.i = phi i64 [ %56, %50 ], [ -1, %13 ]
  call void @llvm.lifetime.end.p0(i64 16, ptr nonnull %7) #22
  %57 = getelementptr inbounds nuw i8, ptr %0, i64 264
  %58 = load i64, ptr %57, align 8, !tbaa !113
  %59 = sub nsw i64 %.0.i, %58
  %60 = sitofp i64 %59 to double
  %61 = fdiv double %60, 1.000000e+06
  %62 = call i32 (ptr, ...) @printf(ptr noundef nonnull dereferenceable(1) @.str.11, double noundef %61)
  %.not = icmp eq i32 %5, 0
  %63 = select i1 %.not, i32 13, i32 10
  %putchar = call i32 @putchar(i32 %63)
  ret void
}